; Function Attrs: mustprogress nounwind uwtable
define internal void @_ZN4absl18debugging_internal12_GLOBAL__N_170DecodeRustPunycodeTest_AcceptsALeadingUnderscoreIfNotTheDelimiter_TestD0Ev(ptr noundef nonnull align 8 dereferenceable(1104) initializes((0, 8)) %0) unnamed_addr #12 align 2 personality ptr @__gxx_personality_v0 {
  store ptr getelementptr inbounds nuw inrange(-16, 48) (i8, ptr @_ZTVN4absl18debugging_internal12_GLOBAL__N_122DecodeRustPunycodeTestE, i64 16), ptr %0, align 8, !tbaa !14
  %2 = getelementptr inbounds nuw i8, ptr %0, i64 48
  %3 = load ptr, ptr %2, align 8, !tbaa !16
  %4 = getelementptr inbounds nuw i8, ptr %0, i64 64
  %5 = icmp eq ptr %3, %4
  br i1 %5, label %_ZNKSt7__cxx1112basic_stringIcSt11char_traitsIcESaIcEE11_M_is_localEv.exit.thread.i.i.i, label %_ZNKSt7__cxx1112basic_stringIcSt11char_traitsIcESaIcEE11_M_is_localEv.exit.i.i.i

_ZNKSt7__cxx1112basic_stringIcSt11char_traitsIcESaIcEE11_M_is_localEv.exit.thread.i.i.i: ; preds = %1
  %6 = getelementptr inbounds nuw i8, ptr %0, i64 56
  %7 = load i64, ptr %6, align 8, !tbaa !10
  %8 = icmp ult i64 %7, 16
  tail call void @llvm.assume(i1 %8)
  br label %_ZNSt7__cxx1112basic_stringIcSt11char_traitsIcESaIcEED2Ev.exit.i

_ZNKSt7__cxx1112basic_stringIcSt11char_traitsIcESaIcEE11_M_is_localEv.exit.i.i.i: ; preds = %1
  %9 = load i64, ptr %4, align 8, !tbaa !13
  %10 = add i64 %9, 1
  tail call void @_ZdlPvm(ptr noundef %3, i64 noundef %10) #26
  br label %_ZNSt7__cxx1112basic_stringIcSt11char_traitsIcESaIcEED2Ev.exit.i

_ZNSt7__cxx1112basic_stringIcSt11char_traitsIcESaIcEED2Ev.exit.i: ; preds = %_ZNKSt7__cxx1112basic_stringIcSt11char_traitsIcESaIcEE11_M_is_localEv.exit.i.i.i, %_ZNKSt7__cxx1112basic_stringIcSt11char_traitsIcESaIcEE11_M_is_localEv.exit.thread.i.i.i
  %11 = getelementptr inbounds nuw i8, ptr %0, i64 16
  %12 = load ptr, ptr %11, align 8, !tbaa !16
  %13 = getelementptr inbounds nuw i8, ptr %0, i64 32
  %14 = icmp eq ptr %12, %13
  br i1 %14, label %_ZNKSt7__cxx1112basic_stringIcSt11char_traitsIcESaIcEE11_M_is_localEv.exit.thread.i.i2.i, label %_ZNKSt7__cxx1112basic_stringIcSt11char_traitsIcESaIcEE11_M_is_localEv.exit.i.i1.i

_ZNKSt7__cxx1112basic_stringIcSt11char_traitsIcESaIcEE11_M_is_localEv.exit.thread.i.i2.i: ; preds = %_ZNSt7__cxx1112basic_stringIcSt11char_traitsIcESaIcEED2Ev.exit.i
  %15 = getelementptr inbounds nuw i8, ptr %0, i64 24
  %16 = load i64, ptr %15, align 8, !tbaa !10
  %17 = icmp ult i64 %16, 16
  tail call void @llvm.assume(i1 %17)
  br label %_ZN4absl18debugging_internal12_GLOBAL__N_122DecodeRustPunycodeTestD2Ev.exit

_ZNKSt7__cxx1112basic_stringIcSt11char_traitsIcESaIcEE11_M_is_localEv.exit.i.i1.i: ; preds = %_ZNSt7__cxx1112basic_stringIcSt11char_traitsIcESaIcEED2Ev.exit.i
  %18 = load i64, ptr %13, align 8, !tbaa !13
  %19 = add i64 %18, 1
  tail call void @_ZdlPvm(ptr noundef %12, i64 noundef %19) #26
  br label %_ZN4absl18debugging_internal12_GLOBAL__N_122DecodeRustPunycodeTestD2Ev.exit

_ZN4absl18debugging_internal12_GLOBAL__N_122DecodeRustPunycodeTestD2Ev.exit: ; preds = %_ZNKSt7__cxx1112basic_stringIcSt11char_traitsIcESaIcEE11_M_is_localEv.exit.thread.i.i2.i, %_ZNKSt7__cxx1112basic_stringIcSt11char_traitsIcESaIcEE11_M_is_localEv.exit.i.i1.i
  tail call void @_ZN7testing4TestD2Ev(ptr noundef nonnull align 8 dereferenceable(1104) %0) #24
  tail call void @_ZdlPvm(ptr noundef nonnull %0, i64 noundef 1104) #26
  ret void
}